; Function Attrs: mustprogress nofree norecurse nosync nounwind willreturn memory(read, inaccessiblemem: none) uwtable
define hidden noundef zeroext i1 @_ZNK3nla6solver12is_monic_varEj(ptr noundef nonnull readonly align 8 captures(none) dereferenceable(8) %0, i32 noundef %1) local_unnamed_addr #5 align 2 {
  %3 = load ptr, ptr %0, align 8, !tbaa !3
  %4 = getelementptr inbounds nuw i8, ptr %3, i64 4552
  %5 = load ptr, ptr %4, align 8, !tbaa !16
  %6 = icmp eq ptr %5, null
  br i1 %6, label %_ZNK3nla4core12is_monic_varEj.exit, label %_ZNK6vectorIjLb0EjE3getEjRKj.exit.i.i

_ZNK6vectorIjLb0EjE3getEjRKj.exit.i.i:            ; preds = %2
  %7 = getelementptr inbounds i8, ptr %5, i64 -4
  %8 = load i32, ptr %7, align 4, !tbaa !19
  %.not.i.i.i = icmp ult i32 %1, %8
  br i1 %.not.i.i.i, label %_ZNK6vectorIjLb0EjE3getEjRKj.exit.then.i.i, label %_ZNK3nla4core12is_monic_varEj.exit

_ZNK6vectorIjLb0EjE3getEjRKj.exit.then.i.i:       ; preds = %_ZNK6vectorIjLb0EjE3getEjRKj.exit.i.i
  %9 = zext i32 %1 to i64
  %10 = getelementptr inbounds nuw i32, ptr %5, i64 %9
  %.then.val.i.i = load i32, ptr %10, align 4, !tbaa !19
  %11 = icmp ne i32 %.then.val.i.i, -1
  br label %_ZNK3nla4core12is_monic_varEj.exit

_ZNK3nla4core12is_monic_varEj.exit:               ; preds = %2, %_ZNK6vectorIjLb0EjE3getEjRKj.exit.i.i, %_ZNK6vectorIjLb0EjE3getEjRKj.exit.then.i.i
  %12 = phi i1 [ %11, %_ZNK6vectorIjLb0EjE3getEjRKj.exit.then.i.i ], [ false, %_ZNK6vectorIjLb0EjE3getEjRKj.exit.i.i ], [ false, %2 ]
  ret i1 %12
}